; Function Attrs: mustprogress nofree norecurse nosync nounwind willreturn memory(argmem: readwrite) uwtable
define void @Saig_ManExposeBadRegs(ptr noundef captures(none) %0, i32 noundef %1) local_unnamed_addr #6 {
  %3 = getelementptr inbounds nuw i8, ptr %0, i64 104
  %4 = load i32, ptr %3, align 8
  %5 = add nsw i32 %4, %1
  store i32 %5, ptr %3, align 8
  %6 = getelementptr inbounds nuw i8, ptr %0, i64 108
  %7 = load i32, ptr %6, align 4
  %8 = sub nsw i32 %7, %1
  store i32 %8, ptr %6, align 4
  %9 = getelementptr inbounds nuw i8, ptr %0, i64 112
  %10 = load i32, ptr %9, align 8
  %11 = sub nsw i32 %10, %1
  store i32 %11, ptr %9, align 8
  ret void
}